; Function Attrs: nofree nounwind uwtable
define internal void @__cxx_global_var_init.5() #8 section ".text.startup" comdat($_ZN5boost4noneE) personality ptr @__gxx_personality_v0 {
  %1 = load atomic i8, ptr @_ZGVN5boost4noneE acquire, align 8
  %2 = icmp eq i8 %1, 0
  br i1 %2, label %3, label %7

3:                                                ; preds = %0
  %4 = tail call i32 @__cxa_guard_acquire(ptr nonnull @_ZGVN5boost4noneE) #36
  %.not = icmp eq i32 %4, 0
  br i1 %.not, label %7, label %5

5:                                                ; preds = %3
  %6 = tail call ptr @llvm.invariant.start.p0(i64 1, ptr nonnull @_ZN5boost4noneE)
  tail call void @__cxa_guard_release(ptr nonnull @_ZGVN5boost4noneE) #36
  br label %7

7:                                                ; preds = %5, %3, %0
  ret void
}